; Function Attrs: nounwind uwtable
define dso_local ptr @ExecTypeFromExprList(ptr noundef readonly captures(address_is_null) %0) local_unnamed_addr #1 {
  %.not.i = icmp eq ptr %0, null
  br i1 %.not.i, label %list_length.exit.thread, label %.lr.ph

list_length.exit.thread:                          ; preds = %1
  %2 = tail call ptr @CreateTemplateTupleDesc(i32 noundef 0) #14
  br label %._crit_edge

.lr.ph:                                           ; preds = %1
  %3 = getelementptr inbounds nuw i8, ptr %0, i64 4
  %4 = load i32, ptr %3, align 4
  %5 = tail call ptr @CreateTemplateTupleDesc(i32 noundef %4) #14
  %6 = getelementptr inbounds nuw i8, ptr %0, i64 4
  %7 = getelementptr inbounds nuw i8, ptr %0, i64 16
  %8 = load i32, ptr %6, align 4
  %9 = icmp sgt i32 %8, 0
  br i1 %9, label %.lr.ph25, label %._crit_edge

._crit_edge:                                      ; preds = %.lr.ph25, %list_length.exit.thread, %.lr.ph
  %10 = phi ptr [ %2, %list_length.exit.thread ], [ %5, %.lr.ph ], [ %5, %.lr.ph25 ]
  ret ptr %10

.lr.ph25:                                         ; preds = %.lr.ph, %.lr.ph25
  %indvars.iv = phi i64 [ %indvars.iv.next, %.lr.ph25 ], [ 0, %.lr.ph ]
  %.0152123 = phi i16 [ %17, %.lr.ph25 ], [ 1, %.lr.ph ]
  %11 = load ptr, ptr %7, align 8
  %12 = getelementptr inbounds nuw %union.ListCell, ptr %11, i64 %indvars.iv
  %13 = load ptr, ptr %12, align 8
  %14 = tail call i32 @exprType(ptr noundef %13) #14
  %15 = tail call i32 @exprTypmod(ptr noundef %13) #14
  tail call void @TupleDescInitEntry(ptr noundef %5, i16 noundef signext %.0152123, ptr noundef null, i32 noundef %14, i32 noundef %15, i32 noundef 0) #14
  %16 = tail call i32 @exprCollation(ptr noundef %13) #14
  tail call void @TupleDescInitEntryCollation(ptr noundef %5, i16 noundef signext %.0152123, i32 noundef %16) #14
  %17 = add i16 %.0152123, 1
  %indvars.iv.next = add nuw nsw i64 %indvars.iv, 1
  %18 = load i32, ptr %6, align 4
  %19 = sext i32 %18 to i64
  %20 = icmp slt i64 %indvars.iv.next, %19
  br i1 %20, label %.lr.ph25, label %._crit_edge
}